; Function Attrs: mustprogress null_pointer_is_valid sspstrong uwtable
define noundef zeroext i1 @_ZNK18AdvancedPrefsModel16filterAcceptsRowEiRK11QModelIndex(ptr noundef align 8 dereferenceable_or_null(44) %0, i32 noundef %1, ptr noundef align 8 dereferenceable(24) %2) unnamed_addr #0 align 2 {
  %4 = alloca %class.QModelIndex, align 8
  call void @llvm.lifetime.start.p0(i64 24, ptr nonnull %4) #26
  %5 = tail call noundef ptr @_ZNK19QAbstractProxyModel11sourceModelEv(ptr noundef align 8 dereferenceable_or_null(16) %0)
  %6 = load ptr, ptr %5, align 8
  %7 = getelementptr inbounds nuw i8, ptr %6, i64 96
  %8 = load ptr, ptr %7, align 8
  call void %8(ptr dead_on_unwind nonnull writable sret(%class.QModelIndex) align 8 %4, ptr noundef align 8 dereferenceable_or_null(16) %5, i32 noundef %1, i32 noundef 0, ptr noundef align 8 dereferenceable(24) %2)
  %9 = getelementptr inbounds nuw i8, ptr %4, i64 8
  %10 = load i64, ptr %9, align 8
  %11 = inttoptr i64 %10 to ptr
  %12 = icmp eq i64 %10, 0
  br i1 %12, label %23, label %13

13:                                               ; preds = %3
  %14 = getelementptr inbounds nuw i8, ptr %11, i64 48
  %15 = load ptr, ptr %14, align 8
  %16 = icmp eq ptr %15, null
  br i1 %16, label %17, label %21

17:                                               ; preds = %13
  %18 = getelementptr inbounds nuw i8, ptr %11, i64 40
  %19 = load ptr, ptr %18, align 8
  %20 = icmp eq ptr %19, null
  br i1 %20, label %23, label %21

21:                                               ; preds = %17, %13
  %22 = call noundef zeroext i1 @_ZNK18AdvancedPrefsModel16filterAcceptItemER9PrefsItem(ptr noundef align 8 dereferenceable_or_null(44) %0, ptr noundef nonnull align 8 dereferenceable(105) %11)
  br label %23

23:                                               ; preds = %21, %17, %3
  %.0 = phi i1 [ true, %3 ], [ false, %17 ], [ %22, %21 ]
  call void @llvm.lifetime.end.p0(i64 24, ptr nonnull %4) #26
  ret i1 %.0
}